target datalayout = "e-m:e-p270:32:32-p271:32:32-p272:64:64-i64:64-i128:128-f80:128-n8:16:32:64-S128"
target triple = "x86_64-pc-linux-gnu"

%"class.std::basic_ostream" = type { ptr, %"class.std::basic_ios" }
%"class.std::basic_ios" = type { %"class.std::ios_base", ptr, i8, i8, ptr, ptr, ptr, ptr }
%"class.std::ios_base" = type { ptr, i64, i64, i32, i32, i32, ptr, %"struct.std::ios_base::_Words", [8 x %"struct.std::ios_base::_Words"], i32, ptr, %"class.std::locale" }
%"struct.std::ios_base::_Words" = type { ptr, i64 }
%"class.std::locale" = type { ptr }
%"class.cmsys::Status" = type { i32, %union.anon.20 }
%union.anon.20 = type { i32 }

@_ZSt4cerr = external global %"class.std::basic_ostream", align 8
@.str.18 = private unnamed_addr constant [4 x i8] c"\22.\0A\00", align 1
@.str.306 = private unnamed_addr constant [35 x i8] c"Error removing directory symlink \22\00", align 1
@.str.307 = private unnamed_addr constant [27 x i8] c"Error removing directory \22\00", align 1
@.str.308 = private unnamed_addr constant [29 x i8] c"\22 without recursive option.\0A\00", align 1

; Function Attrs: mustprogress nounwind uwtable
define linkonce_odr dso_local noundef zeroext i1 @_ZNK5cmsys6Status9IsSuccessEv(ptr noundef nonnull align 4 dereferenceable(8) %0) #5 comdat align 2 {
  %2 = alloca ptr, align 8
  store ptr %0, ptr %2, align 8
  %3 = load ptr, ptr %2, align 8
  %4 = getelementptr inbounds %"class.cmsys::Status", ptr %3, i32 0, i32 0
  %5 = load i32, ptr %4, align 4
  %6 = icmp eq i32 %5, 0
  ret i1 %6
}

; Function Attrs: mustprogress uwtable
define linkonce_odr dso_local noundef zeroext i1 @_ZNK5cmsys6StatuscvbEv(ptr noundef nonnull align 4 dereferenceable(8) %0) #4 comdat align 2 {
  %2 = alloca ptr, align 8
  store ptr %0, ptr %2, align 8
  %3 = load ptr, ptr %2, align 8
  %4 = call noundef zeroext i1 @_ZNK5cmsys6Status9IsSuccessEv(ptr noundef nonnull align 4 dereferenceable(8) %3)
  ret i1 %4
}

; Function Attrs: mustprogress uwtable
define internal noundef zeroext i1 @_ZN12_GLOBAL__N_117cmRemoveDirectoryERKNSt7__cxx1112basic_stringIcSt11char_traitsIcESaIcEEEb(ptr noundef nonnull align 8 dereferenceable(32) %0, i1 noundef zeroext %1) #4 {
  %3 = alloca i1, align 1
  %4 = alloca ptr, align 8
  %5 = alloca i8, align 1
  %6 = alloca %"class.cmsys::Status", align 4
  %7 = alloca %"class.cmsys::Status", align 4
  store ptr %0, ptr %4, align 8
  %8 = zext i1 %1 to i8
  store i8 %8, ptr %5, align 1
  %9 = load ptr, ptr %4, align 8
  %10 = call noundef zeroext i1 @_ZN5cmsys11SystemTools13FileIsSymlinkERKNSt7__cxx1112basic_stringIcSt11char_traitsIcESaIcEEE(ptr noundef nonnull align 8 dereferenceable(32) %9)
  br i1 %10, label %11, label %22

11:                                               ; preds = %2
  %12 = load ptr, ptr %4, align 8
  %13 = call i64 @_ZN5cmsys11SystemTools10RemoveFileERKNSt7__cxx1112basic_stringIcSt11char_traitsIcESaIcEEE(ptr noundef nonnull align 8 dereferenceable(32) %12)
  store i64 %13, ptr %6, align 4
  %14 = call noundef zeroext i1 @_ZNK5cmsys6StatuscvbEv(ptr noundef nonnull align 4 dereferenceable(8) %6)
  %15 = xor i1 %14, true
  br i1 %15, label %16, label %21

16:                                               ; preds = %11
  %17 = call noundef nonnull align 8 dereferenceable(8) ptr @_ZStlsISt11char_traitsIcEERSt13basic_ostreamIcT_ES5_PKc(ptr noundef nonnull align 8 dereferenceable(8) @_ZSt4cerr, ptr noundef @.str.306)
  %18 = load ptr, ptr %4, align 8
  %19 = call noundef nonnull align 8 dereferenceable(8) ptr @_ZStlsIcSt11char_traitsIcESaIcEERSt13basic_ostreamIT_T0_ES7_RKNSt7__cxx1112basic_stringIS4_S5_T1_EE(ptr noundef nonnull align 8 dereferenceable(8) %17, ptr noundef nonnull align 8 dereferenceable(32) %18)
  %20 = call noundef nonnull align 8 dereferenceable(8) ptr @_ZStlsISt11char_traitsIcEERSt13basic_ostreamIcT_ES5_PKc(ptr noundef nonnull align 8 dereferenceable(8) %19, ptr noundef @.str.18)
  store i1 false, ptr %3, align 1
  br label %43

21:                                               ; preds = %11
  br label %42

22:                                               ; preds = %2
  %23 = load i8, ptr %5, align 1
  %24 = trunc i8 %23 to i1
  br i1 %24, label %30, label %25

25:                                               ; preds = %22
  %26 = call noundef nonnull align 8 dereferenceable(8) ptr @_ZStlsISt11char_traitsIcEERSt13basic_ostreamIcT_ES5_PKc(ptr noundef nonnull align 8 dereferenceable(8) @_ZSt4cerr, ptr noundef @.str.307)
  %27 = load ptr, ptr %4, align 8
  %28 = call noundef nonnull align 8 dereferenceable(8) ptr @_ZStlsIcSt11char_traitsIcESaIcEERSt13basic_ostreamIT_T0_ES7_RKNSt7__cxx1112basic_stringIS4_S5_T1_EE(ptr noundef nonnull align 8 dereferenceable(8) %26, ptr noundef nonnull align 8 dereferenceable(32) %27)
  %29 = call noundef nonnull align 8 dereferenceable(8) ptr @_ZStlsISt11char_traitsIcEERSt13basic_ostreamIcT_ES5_PKc(ptr noundef nonnull align 8 dereferenceable(8) %28, ptr noundef @.str.308)
  store i1 false, ptr %3, align 1
  br label %43

30:                                               ; preds = %22
  %31 = load ptr, ptr %4, align 8
  %32 = call i64 @_ZN5cmsys11SystemTools16RemoveADirectoryERKNSt7__cxx1112basic_stringIcSt11char_traitsIcESaIcEEE(ptr noundef nonnull align 8 dereferenceable(32) %31)
  store i64 %32, ptr %7, align 4
  %33 = call noundef zeroext i1 @_ZNK5cmsys6StatuscvbEv(ptr noundef nonnull align 4 dereferenceable(8) %7)
  %34 = xor i1 %33, true
  br i1 %34, label %35, label %40

35:                                               ; preds = %30
  %36 = call noundef nonnull align 8 dereferenceable(8) ptr @_ZStlsISt11char_traitsIcEERSt13basic_ostreamIcT_ES5_PKc(ptr noundef nonnull align 8 dereferenceable(8) @_ZSt4cerr, ptr noundef @.str.307)
  %37 = load ptr, ptr %4, align 8
  %38 = call noundef nonnull align 8 dereferenceable(8) ptr @_ZStlsIcSt11char_traitsIcESaIcEERSt13basic_ostreamIT_T0_ES7_RKNSt7__cxx1112basic_stringIS4_S5_T1_EE(ptr noundef nonnull align 8 dereferenceable(8) %36, ptr noundef nonnull align 8 dereferenceable(32) %37)
  %39 = call noundef nonnull align 8 dereferenceable(8) ptr @_ZStlsISt11char_traitsIcEERSt13basic_ostreamIcT_ES5_PKc(ptr noundef nonnull align 8 dereferenceable(8) %38, ptr noundef @.str.18)
  store i1 false, ptr %3, align 1
  br label %43

40:                                               ; preds = %30
  br label %41

41:                                               ; preds = %40
  br label %42

42:                                               ; preds = %41, %21
  store i1 true, ptr %3, align 1
  br label %43

43:                                               ; preds = %42, %35, %25, %16
  %44 = load i1, ptr %3, align 1
  ret i1 %44
}