; Function Attrs: mustprogress uwtable
define internal fastcc noundef zeroext i1 @_ZN12_GLOBAL__N_117cmRemoveDirectoryERKNSt7__cxx1112basic_stringIcSt11char_traitsIcESaIcEEEb(ptr noundef nonnull align 8 dereferenceable(32) %0, i1 noundef zeroext %1) unnamed_addr #3 {
  %3 = tail call noundef zeroext i1 @_ZN5cmsys11SystemTools13FileIsSymlinkERKNSt7__cxx1112basic_stringIcSt11char_traitsIcESaIcEEE(ptr noundef nonnull align 8 dereferenceable(32) %0)
  br i1 %3, label %4, label %8

4:                                                ; preds = %2
  %5 = tail call i64 @_ZN5cmsys11SystemTools10RemoveFileERKNSt7__cxx1112basic_stringIcSt11char_traitsIcESaIcEEE(ptr noundef nonnull align 8 dereferenceable(32) %0)
  %6 = and i64 %5, 4294967295
  %7 = icmp eq i64 %6, 0
  br i1 %7, label %16, label %.sink.split

8:                                                ; preds = %2
  br i1 %1, label %9, label %.sink.split

9:                                                ; preds = %8
  %10 = tail call i64 @_ZN5cmsys11SystemTools16RemoveADirectoryERKNSt7__cxx1112basic_stringIcSt11char_traitsIcESaIcEEE(ptr noundef nonnull align 8 dereferenceable(32) %0)
  %11 = and i64 %10, 4294967295
  %12 = icmp eq i64 %11, 0
  br i1 %12, label %16, label %.sink.split

.sink.split:                                      ; preds = %9, %8, %4
  %.str.307.sink = phi ptr [ @.str.306, %4 ], [ @.str.307, %8 ], [ @.str.307, %9 ]
  %.str.18.sink = phi ptr [ @.str.18, %4 ], [ @.str.308, %8 ], [ @.str.18, %9 ]
  %13 = tail call noundef nonnull align 8 dereferenceable(8) ptr @_ZStlsISt11char_traitsIcEERSt13basic_ostreamIcT_ES5_PKc(ptr noundef nonnull align 8 dereferenceable(8) @_ZSt4cerr, ptr noundef nonnull %.str.307.sink)
  %14 = tail call noundef nonnull align 8 dereferenceable(8) ptr @_ZStlsIcSt11char_traitsIcESaIcEERSt13basic_ostreamIT_T0_ES7_RKNSt7__cxx1112basic_stringIS4_S5_T1_EE(ptr noundef nonnull align 8 dereferenceable(8) %13, ptr noundef nonnull align 8 dereferenceable(32) %0)
  %15 = tail call noundef nonnull align 8 dereferenceable(8) ptr @_ZStlsISt11char_traitsIcEERSt13basic_ostreamIcT_ES5_PKc(ptr noundef nonnull align 8 dereferenceable(8) %14, ptr noundef nonnull %.str.18.sink)
  br label %16

16:                                               ; preds = %.sink.split, %4, %9
  %.0 = phi i1 [ true, %9 ], [ true, %4 ], [ false, %.sink.split ]
  ret i1 %.0
}